target datalayout = "e-m:e-p270:32:32-p271:32:32-p272:64:64-i64:64-i128:128-f80:128-n8:16:32:64-S128"
target triple = "x86_64-pc-linux-gnu"

%"class.facebook::yoga::Config" = type { ptr, ptr, i8, i32, %"class.std::bitset", i32, float, ptr }
%"class.std::bitset" = type { %"struct.std::_Base_bitset" }
%"struct.std::_Base_bitset" = type { i64 }

; Function Attrs: mustprogress nounwind uwtable
define void @_ZN8facebook4yoga6Config17setUseWebDefaultsEb(ptr noundef nonnull align 8 dereferenceable(48) %0, i1 noundef zeroext %1) #1 align 2 {
  %3 = alloca ptr, align 8
  %4 = alloca i8, align 1
  store ptr %0, ptr %3, align 8, !tbaa !4
  %5 = zext i1 %1 to i8
  store i8 %5, ptr %4, align 1, !tbaa !21
  %6 = load ptr, ptr %3, align 8
  %7 = load i8, ptr %4, align 1, !tbaa !21, !range !22, !noundef !23
  %8 = trunc i8 %7 to i1
  %9 = getelementptr inbounds nuw %"class.facebook::yoga::Config", ptr %6, i32 0, i32 2
  %10 = zext i1 %8 to i8
  %11 = load i8, ptr %9, align 8
  %12 = and i8 %11, -2
  %13 = or i8 %12, %10
  store i8 %13, ptr %9, align 8
  ret void
}