; Function Attrs: mustprogress nofree norecurse nosync nounwind willreturn memory(argmem: readwrite) uwtable
define void @_ZN8facebook4yoga6Config17setUseWebDefaultsEb(ptr noundef nonnull align 8 captures(none) dereferenceable(48) %0, i1 noundef zeroext %1) local_unnamed_addr #1 align 2 {
  %3 = zext i1 %1 to i8
  %4 = getelementptr inbounds nuw i8, ptr %0, i64 16
  %5 = load i8, ptr %4, align 8
  %6 = and i8 %5, -2
  %7 = or disjoint i8 %6, %3
  store i8 %7, ptr %4, align 8
  ret void
}